; Function Attrs: mustprogress nounwind uwtable
define dso_local noundef zeroext i1 @_ZN5clang8comments4Sema19isClassTemplateDeclEv(ptr nocapture noundef nonnull readonly align 8 dereferenceable(168) %0) local_unnamed_addr #0 align 2 {
  %2 = getelementptr inbounds nuw i8, ptr %0, i64 40
  %3 = load ptr, ptr %2, align 8
  %.not = icmp eq ptr %3, null
  br i1 %.not, label %18, label %4

4:                                                ; preds = %1
  %5 = getelementptr inbounds nuw i8, ptr %3, i64 48
  %6 = load i16, ptr %5, align 8
  %7 = and i16 %6, 1
  %.not3 = icmp eq i16 %7, 0
  br i1 %.not3, label %8, label %9

8:                                                ; preds = %4
  tail call void @_ZN5clang8comments8DeclInfo4fillEv(ptr noundef nonnull align 8 dereferenceable(50) %3) #17
  %.pre = load ptr, ptr %2, align 8
  br label %9

9:                                                ; preds = %8, %4
  %10 = phi ptr [ %.pre, %8 ], [ %3, %4 ]
  %11 = getelementptr inbounds nuw i8, ptr %10, i64 8
  %12 = load ptr, ptr %11, align 8
  %.not4 = icmp eq ptr %12, null
  br i1 %.not4, label %18, label %13

13:                                               ; preds = %9
  %14 = getelementptr inbounds nuw i8, ptr %12, i64 28
  %15 = load i32, ptr %14, align 4
  %16 = and i32 %15, 127
  %17 = icmp eq i32 %16, 69
  br label %18

18:                                               ; preds = %9, %13, %1
  %.0 = phi i1 [ false, %1 ], [ false, %9 ], [ %17, %13 ]
  ret i1 %.0
}